target datalayout = "e-m:e-p270:32:32-p271:32:32-p272:64:64-i64:64-i128:128-f80:128-n8:16:32:64-S128"
target triple = "x86_64-pc-linux-gnu"

%struct.mi_memid_s = type { %union.anon, i8, i8, i8, i32 }
%union.anon = type { %struct.mi_memid_os_info }
%struct.mi_memid_os_info = type { ptr, i64 }
%struct.mi_arena_s = type { i32, %struct.mi_memid_s, ptr, i64, i64, i64, %struct.mi_memid_s, i32, i8, i8, %union.pthread_mutex_t, i64, i64, ptr, ptr, ptr, ptr, [1 x i64] }
%union.pthread_mutex_t = type { %struct.__pthread_mutex_s }
%struct.__pthread_mutex_s = type { i32, i32, i32, i32, i32, i16, i16, %struct.__pthread_internal_list }
%struct.__pthread_internal_list = type { ptr, ptr }

@mi_arena_count = internal global i64 0, align 64
@mi_arenas = internal global [132 x ptr] zeroinitializer, align 64

; Function Attrs: nounwind uwtable
define internal i64 @mi_arena_block_size(i64 noundef %0) #0 {
  %2 = alloca i64, align 8
  store i64 %0, ptr %2, align 8, !tbaa !15
  %3 = load i64, ptr %2, align 8, !tbaa !15
  %4 = mul i64 %3, 4194304
  ret i64 %4
}

; Function Attrs: nounwind uwtable
define hidden zeroext i1 @_mi_arena_contains(ptr noundef %0) #0 {
  %2 = alloca i1, align 1
  %3 = alloca ptr, align 8
  %4 = alloca i64, align 8
  %5 = alloca i64, align 8
  %6 = alloca i64, align 8
  %7 = alloca i32, align 4
  %8 = alloca ptr, align 8
  %9 = alloca ptr, align 8
  store ptr %0, ptr %3, align 8, !tbaa !53
  call void @llvm.lifetime.start.p0(i64 8, ptr %4) #13
  %10 = load atomic i64, ptr @mi_arena_count monotonic, align 64
  store i64 %10, ptr %5, align 8
  %11 = load i64, ptr %5, align 8, !tbaa !15
  store i64 %11, ptr %4, align 8, !tbaa !15
  call void @llvm.lifetime.start.p0(i64 8, ptr %6) #13
  store i64 0, ptr %6, align 8, !tbaa !15
  br label %12

12:                                               ; preds = %46, %1
  %13 = load i64, ptr %6, align 8, !tbaa !15
  %14 = load i64, ptr %4, align 8, !tbaa !15
  %15 = icmp ult i64 %13, %14
  br i1 %15, label %17, label %16

16:                                               ; preds = %12
  store i32 2, ptr %7, align 4
  br label %49

17:                                               ; preds = %12
  call void @llvm.lifetime.start.p0(i64 8, ptr %8) #13
  %18 = load i64, ptr %6, align 8, !tbaa !15
  %19 = getelementptr inbounds nuw [132 x ptr], ptr @mi_arenas, i64 0, i64 %18
  %20 = load atomic i64, ptr %19 monotonic, align 8
  store i64 %20, ptr %9, align 8
  %21 = load ptr, ptr %9, align 8, !tbaa !16
  store ptr %21, ptr %8, align 8, !tbaa !16
  %22 = load ptr, ptr %8, align 8, !tbaa !16
  %23 = icmp ne ptr %22, null
  br i1 %23, label %24, label %42

24:                                               ; preds = %17
  %25 = load ptr, ptr %8, align 8, !tbaa !16
  %26 = getelementptr inbounds nuw %struct.mi_arena_s, ptr %25, i32 0, i32 2
  %27 = load atomic ptr, ptr %26 seq_cst, align 8, !tbaa !66
  %28 = load ptr, ptr %3, align 8, !tbaa !53
  %29 = icmp ule ptr %27, %28
  br i1 %29, label %30, label %42

30:                                               ; preds = %24
  %31 = load ptr, ptr %8, align 8, !tbaa !16
  %32 = getelementptr inbounds nuw %struct.mi_arena_s, ptr %31, i32 0, i32 2
  %33 = load atomic ptr, ptr %32 seq_cst, align 8, !tbaa !66
  %34 = load ptr, ptr %8, align 8, !tbaa !16
  %35 = getelementptr inbounds nuw %struct.mi_arena_s, ptr %34, i32 0, i32 3
  %36 = load i64, ptr %35, align 8, !tbaa !75
  %37 = call i64 @mi_arena_block_size(i64 noundef %36) #12
  %38 = getelementptr inbounds nuw i8, ptr %33, i64 %37
  %39 = load ptr, ptr %3, align 8, !tbaa !53
  %40 = icmp ugt ptr %38, %39
  br i1 %40, label %41, label %42

41:                                               ; preds = %30
  store i1 true, ptr %2, align 1
  store i32 1, ptr %7, align 4
  br label %43

42:                                               ; preds = %30, %24, %17
  store i32 0, ptr %7, align 4
  br label %43

43:                                               ; preds = %42, %41
  call void @llvm.lifetime.end.p0(i64 8, ptr %8) #13
  %44 = load i32, ptr %7, align 4
  switch i32 %44, label %49 [
    i32 0, label %45
  ]

45:                                               ; preds = %43
  br label %46

46:                                               ; preds = %45
  %47 = load i64, ptr %6, align 8, !tbaa !15
  %48 = add i64 %47, 1
  store i64 %48, ptr %6, align 8, !tbaa !15
  br label %12, !llvm.loop !84

49:                                               ; preds = %43, %16
  call void @llvm.lifetime.end.p0(i64 8, ptr %6) #13
  %50 = load i32, ptr %7, align 4
  switch i32 %50, label %52 [
    i32 2, label %51
  ]

51:                                               ; preds = %49
  store i1 false, ptr %2, align 1
  store i32 1, ptr %7, align 4
  br label %52

52:                                               ; preds = %51, %49
  call void @llvm.lifetime.end.p0(i64 8, ptr %4) #13
  %53 = load i1, ptr %2, align 1
  ret i1 %53
}