; Function Attrs: nofree norecurse nounwind memory(readwrite, inaccessiblemem: none) uwtable
define hidden noundef zeroext i1 @_mi_arena_contains(ptr noundef readnone captures(address) %0) local_unnamed_addr #12 {
  %2 = load atomic i64, ptr @mi_arena_count monotonic, align 64
  %.not2124.not = icmp eq i64 %2, 0
  br i1 %.not2124.not, label %.critedge23, label %.lr.ph

.lr.ph:                                           ; preds = %1, %.critedge
  %.01525 = phi i64 [ %16, %.critedge ], [ 0, %1 ]
  %3 = getelementptr inbounds nuw [132 x ptr], ptr @mi_arenas, i64 0, i64 %.01525
  %4 = load atomic i64, ptr %3 monotonic, align 8
  %5 = inttoptr i64 %4 to ptr
  %.not = icmp eq i64 %4, 0
  br i1 %.not, label %.critedge, label %6

6:                                                ; preds = %.lr.ph
  %7 = getelementptr inbounds nuw i8, ptr %5, i64 32
  %8 = load atomic ptr, ptr %7 seq_cst, align 8, !tbaa !49
  %.not20 = icmp ugt ptr %8, %0
  br i1 %.not20, label %.critedge, label %9

9:                                                ; preds = %6
  %10 = load atomic ptr, ptr %7 seq_cst, align 8, !tbaa !49
  %11 = getelementptr inbounds nuw i8, ptr %5, i64 40
  %12 = load i64, ptr %11, align 8, !tbaa !56
  %13 = shl i64 %12, 22
  %14 = getelementptr inbounds nuw i8, ptr %10, i64 %13
  %15 = icmp ugt ptr %14, %0
  br i1 %15, label %.critedge23, label %.critedge

.critedge:                                        ; preds = %9, %6, %.lr.ph
  %16 = add nuw i64 %.01525, 1
  %exitcond.not = icmp eq i64 %16, %2
  br i1 %exitcond.not, label %.critedge23, label %.lr.ph, !llvm.loop !71

.critedge23:                                      ; preds = %9, %.critedge, %1
  %.not21.lcssa = phi i1 [ false, %1 ], [ false, %.critedge ], [ true, %9 ]
  ret i1 %.not21.lcssa
}